target datalayout = "e-m:e-p270:32:32-p271:32:32-p272:64:64-i64:64-i128:128-f80:128-n8:16:32:64-S128"
target triple = "x86_64-pc-linux-gnu"

%struct.diff_options = type { ptr, ptr, i32, i32, ptr, i32, ptr, i64, i64, ptr, ptr, ptr, ptr, %struct.diff_flags, i32, i32, i32, i32, i32, i32, i32, i32, i32, i32, i32, i32, i32, i32, i32, i32, i32, i32, i32, i32, i32, i32, ptr, i32, ptr, i32, i32, ptr, i64, i64, i32, i32, i32, i32, ptr, i32, i32, ptr, i32, i32, ptr, ptr, i32, [3 x i8], %struct.pathspec, ptr, ptr, ptr, ptr, ptr, ptr, ptr, ptr, i32, ptr, i32, i32, ptr, ptr, i32 }
%struct.diff_flags = type { i32, i32, i32, i32, i32, i32, i32, i32, i32, i32, i32, i32, i32, i32, i32, i32, i32, i32, i32, i32, i32, i32, i32, i32, i32, i32, i32, i32, i32, i32, i32, i32, i32, i32, i32 }
%struct.pathspec = type { i32, i8, i32, i32, ptr }
%struct.checkdiff_t = type { ptr, i32, i32, ptr, i32, i32 }

@.str.41 = private unnamed_addr constant [1 x i8] zeroinitializer, align 1
@sane_ctype = external constant [256 x i8], align 16
@.str.375 = private unnamed_addr constant [35 x i8] c"%s%s:%d: leftover conflict marker\0A\00", align 1
@.str.376 = private unnamed_addr constant [14 x i8] c"%s%s:%d: %s.\0A\00", align 1

; Function Attrs: nounwind uwtable
define internal void @emit_line(ptr noundef %0, ptr noundef %1, ptr noundef %2, ptr noundef %3, i32 noundef %4) #0 {
  %6 = alloca ptr, align 8
  %7 = alloca ptr, align 8
  %8 = alloca ptr, align 8
  %9 = alloca ptr, align 8
  %10 = alloca i32, align 4
  store ptr %0, ptr %6, align 8, !tbaa !34
  store ptr %1, ptr %7, align 8, !tbaa !9
  store ptr %2, ptr %8, align 8, !tbaa !9
  store ptr %3, ptr %9, align 8, !tbaa !9
  store i32 %4, ptr %10, align 4, !tbaa !16
  %11 = load ptr, ptr %6, align 8, !tbaa !34
  %12 = load ptr, ptr %7, align 8, !tbaa !9
  %13 = load ptr, ptr %8, align 8, !tbaa !9
  %14 = load ptr, ptr %9, align 8, !tbaa !9
  %15 = load i32, ptr %10, align 4, !tbaa !16
  call void @emit_line_0(ptr noundef %11, ptr noundef %12, ptr noundef null, i32 noundef 0, ptr noundef %13, i32 noundef 0, ptr noundef %14, i32 noundef %15)
  ret void
}

; Function Attrs: nounwind uwtable
define internal i32 @is_conflict_marker(ptr noundef %0, i32 noundef %1, i64 noundef %2) #0 {
  %4 = alloca i32, align 4
  %5 = alloca ptr, align 8
  %6 = alloca i32, align 4
  %7 = alloca i64, align 8
  %8 = alloca i8, align 1
  %9 = alloca i32, align 4
  %10 = alloca i32, align 4
  store ptr %0, ptr %5, align 8, !tbaa !9
  store i32 %1, ptr %6, align 4, !tbaa !16
  store i64 %2, ptr %7, align 8, !tbaa !11
  call void @llvm.lifetime.start.p0(i64 1, ptr %8) #10
  call void @llvm.lifetime.start.p0(i64 4, ptr %9) #10
  %11 = load i64, ptr %7, align 8, !tbaa !11
  %12 = load i32, ptr %6, align 4, !tbaa !16
  %13 = add nsw i32 %12, 1
  %14 = sext i32 %13 to i64
  %15 = icmp ult i64 %11, %14
  br i1 %15, label %16, label %17

16:                                               ; preds = %3
  store i32 0, ptr %4, align 4
  store i32 1, ptr %10, align 4
  br label %65

17:                                               ; preds = %3
  %18 = load ptr, ptr %5, align 8, !tbaa !9
  %19 = getelementptr inbounds i8, ptr %18, i64 0
  %20 = load i8, ptr %19, align 1, !tbaa !48
  store i8 %20, ptr %8, align 1, !tbaa !48
  %21 = load i8, ptr %8, align 1, !tbaa !48
  %22 = sext i8 %21 to i32
  switch i32 %22, label %24 [
    i32 61, label %23
    i32 62, label %23
    i32 60, label %23
    i32 124, label %23
  ]

23:                                               ; preds = %17, %17, %17, %17
  br label %25

24:                                               ; preds = %17
  store i32 0, ptr %4, align 4
  store i32 1, ptr %10, align 4
  br label %65

25:                                               ; preds = %23
  store i32 1, ptr %9, align 4, !tbaa !16
  br label %26

26:                                               ; preds = %42, %25
  %27 = load i32, ptr %9, align 4, !tbaa !16
  %28 = load i32, ptr %6, align 4, !tbaa !16
  %29 = icmp slt i32 %27, %28
  br i1 %29, label %30, label %45

30:                                               ; preds = %26
  %31 = load ptr, ptr %5, align 8, !tbaa !9
  %32 = load i32, ptr %9, align 4, !tbaa !16
  %33 = sext i32 %32 to i64
  %34 = getelementptr inbounds i8, ptr %31, i64 %33
  %35 = load i8, ptr %34, align 1, !tbaa !48
  %36 = sext i8 %35 to i32
  %37 = load i8, ptr %8, align 1, !tbaa !48
  %38 = sext i8 %37 to i32
  %39 = icmp ne i32 %36, %38
  br i1 %39, label %40, label %41

40:                                               ; preds = %30
  store i32 0, ptr %4, align 4
  store i32 1, ptr %10, align 4
  br label %65

41:                                               ; preds = %30
  br label %42

42:                                               ; preds = %41
  %43 = load i32, ptr %9, align 4, !tbaa !16
  %44 = add nsw i32 %43, 1
  store i32 %44, ptr %9, align 4, !tbaa !16
  br label %26, !llvm.loop !439

45:                                               ; preds = %26
  %46 = load i64, ptr %7, align 8, !tbaa !11
  %47 = load i32, ptr %6, align 4, !tbaa !16
  %48 = add nsw i32 %47, 1
  %49 = sext i32 %48 to i64
  %50 = icmp ult i64 %46, %49
  br i1 %50, label %63, label %51

51:                                               ; preds = %45
  %52 = load ptr, ptr %5, align 8, !tbaa !9
  %53 = load i32, ptr %6, align 4, !tbaa !16
  %54 = sext i32 %53 to i64
  %55 = getelementptr inbounds i8, ptr %52, i64 %54
  %56 = load i8, ptr %55, align 1, !tbaa !48
  %57 = zext i8 %56 to i64
  %58 = getelementptr inbounds nuw [256 x i8], ptr @sane_ctype, i64 0, i64 %57
  %59 = load i8, ptr %58, align 1, !tbaa !48
  %60 = zext i8 %59 to i32
  %61 = and i32 %60, 1
  %62 = icmp ne i32 %61, 0
  br i1 %62, label %64, label %63

63:                                               ; preds = %51, %45
  store i32 0, ptr %4, align 4
  store i32 1, ptr %10, align 4
  br label %65

64:                                               ; preds = %51
  store i32 1, ptr %4, align 4
  store i32 1, ptr %10, align 4
  br label %65

65:                                               ; preds = %64, %63, %40, %24, %16
  call void @llvm.lifetime.end.p0(i64 4, ptr %9) #10
  call void @llvm.lifetime.end.p0(i64 1, ptr %8) #10
  %66 = load i32, ptr %4, align 4
  ret i32 %66
}

; Function Attrs: nounwind uwtable
define dso_local ptr @diff_line_prefix(ptr noundef %0) #0 {
  %2 = alloca ptr, align 8
  store ptr %0, ptr %2, align 8, !tbaa !34
  %3 = load ptr, ptr %2, align 8, !tbaa !34
  %4 = getelementptr inbounds nuw %struct.diff_options, ptr %3, i32 0, i32 65
  %5 = load ptr, ptr %4, align 8, !tbaa !69
  %6 = icmp ne ptr %5, null
  br i1 %6, label %7, label %16

7:                                                ; preds = %1
  %8 = load ptr, ptr %2, align 8, !tbaa !34
  %9 = getelementptr inbounds nuw %struct.diff_options, ptr %8, i32 0, i32 65
  %10 = load ptr, ptr %9, align 8, !tbaa !69
  %11 = load ptr, ptr %2, align 8, !tbaa !34
  %12 = load ptr, ptr %2, align 8, !tbaa !34
  %13 = getelementptr inbounds nuw %struct.diff_options, ptr %12, i32 0, i32 66
  %14 = load ptr, ptr %13, align 8, !tbaa !70
  %15 = call ptr %10(ptr noundef %11, ptr noundef %14)
  br label %17

16:                                               ; preds = %1
  br label %17

17:                                               ; preds = %16, %7
  %18 = phi ptr [ %15, %7 ], [ @.str.41, %16 ]
  ret ptr %18
}

; Function Attrs: nounwind uwtable
define dso_local ptr @diff_get_color(i32 noundef %0, i32 noundef %1) #0 {
  %3 = alloca ptr, align 8
  %4 = alloca i32, align 4
  %5 = alloca i32, align 4
  store i32 %0, ptr %4, align 4, !tbaa !16
  store i32 %1, ptr %5, align 4, !tbaa !16
  %6 = load i32, ptr %4, align 4, !tbaa !16
  %7 = call i32 @want_color_fd(i32 noundef 1, i32 noundef %6)
  %8 = icmp ne i32 %7, 0
  br i1 %8, label %9, label %14

9:                                                ; preds = %2
  %10 = load i32, ptr %5, align 4, !tbaa !16
  %11 = zext i32 %10 to i64
  %12 = getelementptr inbounds nuw [23 x [75 x i8]], ptr @diff_colors, i64 0, i64 %11
  %13 = getelementptr inbounds [75 x i8], ptr %12, i64 0, i64 0
  store ptr %13, ptr %3, align 8
  br label %15

14:                                               ; preds = %2
  store ptr @.str.41, ptr %3, align 8
  br label %15

15:                                               ; preds = %14, %9
  %16 = load ptr, ptr %3, align 8
  ret ptr %16
}

; Function Attrs: nounwind uwtable
define internal i32 @checkdiff_consume(ptr noundef %0, ptr noundef %1, i64 noundef %2) #0 {
  %4 = alloca i32, align 4
  %5 = alloca ptr, align 8
  %6 = alloca ptr, align 8
  %7 = alloca i64, align 8
  %8 = alloca ptr, align 8
  %9 = alloca i32, align 4
  %10 = alloca ptr, align 8
  %11 = alloca ptr, align 8
  %12 = alloca ptr, align 8
  %13 = alloca ptr, align 8
  %14 = alloca ptr, align 8
  %15 = alloca i32, align 4
  %16 = alloca i32, align 4
  store ptr %0, ptr %5, align 8, !tbaa !18
  store ptr %1, ptr %6, align 8, !tbaa !9
  store i64 %2, ptr %7, align 8, !tbaa !11
  call void @llvm.lifetime.start.p0(i64 8, ptr %8) #10
  %17 = load ptr, ptr %5, align 8, !tbaa !18
  store ptr %17, ptr %8, align 8, !tbaa !434
  call void @llvm.lifetime.start.p0(i64 4, ptr %9) #10
  %18 = load ptr, ptr %8, align 8, !tbaa !434
  %19 = getelementptr inbounds nuw %struct.checkdiff_t, ptr %18, i32 0, i32 2
  %20 = load i32, ptr %19, align 4, !tbaa !428
  store i32 %20, ptr %9, align 4, !tbaa !16
  call void @llvm.lifetime.start.p0(i64 8, ptr %10) #10
  %21 = load ptr, ptr %8, align 8, !tbaa !434
  %22 = getelementptr inbounds nuw %struct.checkdiff_t, ptr %21, i32 0, i32 3
  %23 = load ptr, ptr %22, align 8, !tbaa !426
  %24 = getelementptr inbounds nuw %struct.diff_options, ptr %23, i32 0, i32 16
  %25 = load i32, ptr %24, align 4, !tbaa !169
  %26 = call ptr @diff_get_color(i32 noundef %25, i32 noundef 7)
  store ptr %26, ptr %10, align 8, !tbaa !9
  call void @llvm.lifetime.start.p0(i64 8, ptr %11) #10
  %27 = load ptr, ptr %8, align 8, !tbaa !434
  %28 = getelementptr inbounds nuw %struct.checkdiff_t, ptr %27, i32 0, i32 3
  %29 = load ptr, ptr %28, align 8, !tbaa !426
  %30 = getelementptr inbounds nuw %struct.diff_options, ptr %29, i32 0, i32 16
  %31 = load i32, ptr %30, align 4, !tbaa !169
  %32 = call ptr @diff_get_color(i32 noundef %31, i32 noundef 0)
  store ptr %32, ptr %11, align 8, !tbaa !9
  call void @llvm.lifetime.start.p0(i64 8, ptr %12) #10
  %33 = load ptr, ptr %8, align 8, !tbaa !434
  %34 = getelementptr inbounds nuw %struct.checkdiff_t, ptr %33, i32 0, i32 3
  %35 = load ptr, ptr %34, align 8, !tbaa !426
  %36 = getelementptr inbounds nuw %struct.diff_options, ptr %35, i32 0, i32 16
  %37 = load i32, ptr %36, align 4, !tbaa !169
  %38 = call ptr @diff_get_color(i32 noundef %37, i32 noundef 5)
  store ptr %38, ptr %12, align 8, !tbaa !9
  call void @llvm.lifetime.start.p0(i64 8, ptr %13) #10
  call void @llvm.lifetime.start.p0(i64 8, ptr %14) #10
  %39 = load ptr, ptr %8, align 8, !tbaa !434
  %40 = getelementptr inbounds nuw %struct.checkdiff_t, ptr %39, i32 0, i32 3
  %41 = load ptr, ptr %40, align 8, !tbaa !426
  %42 = call ptr @diff_line_prefix(ptr noundef %41)
  store ptr %42, ptr %14, align 8, !tbaa !9
  %43 = load ptr, ptr %6, align 8, !tbaa !9
  %44 = getelementptr inbounds i8, ptr %43, i64 0
  %45 = load i8, ptr %44, align 1, !tbaa !48
  %46 = sext i8 %45 to i32
  %47 = icmp eq i32 %46, 43
  br i1 %47, label %48, label %139

48:                                               ; preds = %3
  call void @llvm.lifetime.start.p0(i64 4, ptr %15) #10
  %49 = load ptr, ptr %8, align 8, !tbaa !434
  %50 = getelementptr inbounds nuw %struct.checkdiff_t, ptr %49, i32 0, i32 1
  %51 = load i32, ptr %50, align 8, !tbaa !425
  %52 = add nsw i32 %51, 1
  store i32 %52, ptr %50, align 8, !tbaa !425
  %53 = load ptr, ptr %6, align 8, !tbaa !9
  %54 = getelementptr inbounds i8, ptr %53, i64 1
  %55 = load i32, ptr %9, align 4, !tbaa !16
  %56 = load i64, ptr %7, align 8, !tbaa !11
  %57 = sub i64 %56, 1
  %58 = call i32 @is_conflict_marker(ptr noundef %54, i32 noundef %55, i64 noundef %57)
  %59 = icmp ne i32 %58, 0
  br i1 %59, label %60, label %78

60:                                               ; preds = %48
  %61 = load ptr, ptr %8, align 8, !tbaa !434
  %62 = getelementptr inbounds nuw %struct.checkdiff_t, ptr %61, i32 0, i32 5
  %63 = load i32, ptr %62, align 4, !tbaa !433
  %64 = or i32 %63, 1
  store i32 %64, ptr %62, align 4, !tbaa !433
  %65 = load ptr, ptr %8, align 8, !tbaa !434
  %66 = getelementptr inbounds nuw %struct.checkdiff_t, ptr %65, i32 0, i32 3
  %67 = load ptr, ptr %66, align 8, !tbaa !426
  %68 = getelementptr inbounds nuw %struct.diff_options, ptr %67, i32 0, i32 55
  %69 = load ptr, ptr %68, align 8, !tbaa !72
  %70 = load ptr, ptr %14, align 8, !tbaa !9
  %71 = load ptr, ptr %8, align 8, !tbaa !434
  %72 = getelementptr inbounds nuw %struct.checkdiff_t, ptr %71, i32 0, i32 0
  %73 = load ptr, ptr %72, align 8, !tbaa !423
  %74 = load ptr, ptr %8, align 8, !tbaa !434
  %75 = getelementptr inbounds nuw %struct.checkdiff_t, ptr %74, i32 0, i32 1
  %76 = load i32, ptr %75, align 8, !tbaa !425
  %77 = call i32 (ptr, ptr, ...) @fprintf(ptr noundef %69, ptr noundef @.str.375, ptr noundef %70, ptr noundef %73, i32 noundef %76) #10
  br label %78

78:                                               ; preds = %60, %48
  %79 = load ptr, ptr %6, align 8, !tbaa !9
  %80 = getelementptr inbounds i8, ptr %79, i64 1
  %81 = load i64, ptr %7, align 8, !tbaa !11
  %82 = sub i64 %81, 1
  %83 = trunc i64 %82 to i32
  %84 = load ptr, ptr %8, align 8, !tbaa !434
  %85 = getelementptr inbounds nuw %struct.checkdiff_t, ptr %84, i32 0, i32 4
  %86 = load i32, ptr %85, align 8, !tbaa !427
  %87 = call i32 @ws_check(ptr noundef %80, i32 noundef %83, i32 noundef %86)
  store i32 %87, ptr %15, align 4, !tbaa !16
  %88 = load i32, ptr %15, align 4, !tbaa !16
  %89 = icmp ne i32 %88, 0
  br i1 %89, label %91, label %90

90:                                               ; preds = %78
  store i32 0, ptr %4, align 4
  store i32 1, ptr %16, align 4
  br label %136

91:                                               ; preds = %78
  %92 = load i32, ptr %15, align 4, !tbaa !16
  %93 = load ptr, ptr %8, align 8, !tbaa !434
  %94 = getelementptr inbounds nuw %struct.checkdiff_t, ptr %93, i32 0, i32 5
  %95 = load i32, ptr %94, align 4, !tbaa !433
  %96 = or i32 %95, %92
  store i32 %96, ptr %94, align 4, !tbaa !433
  %97 = load i32, ptr %15, align 4, !tbaa !16
  %98 = call ptr @whitespace_error_string(i32 noundef %97)
  store ptr %98, ptr %13, align 8, !tbaa !9
  %99 = load ptr, ptr %8, align 8, !tbaa !434
  %100 = getelementptr inbounds nuw %struct.checkdiff_t, ptr %99, i32 0, i32 3
  %101 = load ptr, ptr %100, align 8, !tbaa !426
  %102 = getelementptr inbounds nuw %struct.diff_options, ptr %101, i32 0, i32 55
  %103 = load ptr, ptr %102, align 8, !tbaa !72
  %104 = load ptr, ptr %14, align 8, !tbaa !9
  %105 = load ptr, ptr %8, align 8, !tbaa !434
  %106 = getelementptr inbounds nuw %struct.checkdiff_t, ptr %105, i32 0, i32 0
  %107 = load ptr, ptr %106, align 8, !tbaa !423
  %108 = load ptr, ptr %8, align 8, !tbaa !434
  %109 = getelementptr inbounds nuw %struct.checkdiff_t, ptr %108, i32 0, i32 1
  %110 = load i32, ptr %109, align 8, !tbaa !425
  %111 = load ptr, ptr %13, align 8, !tbaa !9
  %112 = call i32 (ptr, ptr, ...) @fprintf(ptr noundef %103, ptr noundef @.str.376, ptr noundef %104, ptr noundef %107, i32 noundef %110, ptr noundef %111) #10
  %113 = load ptr, ptr %13, align 8, !tbaa !9
  call void @free(ptr noundef %113) #10
  %114 = load ptr, ptr %8, align 8, !tbaa !434
  %115 = getelementptr inbounds nuw %struct.checkdiff_t, ptr %114, i32 0, i32 3
  %116 = load ptr, ptr %115, align 8, !tbaa !426
  %117 = load ptr, ptr %12, align 8, !tbaa !9
  %118 = load ptr, ptr %11, align 8, !tbaa !9
  %119 = load ptr, ptr %6, align 8, !tbaa !9
  call void @emit_line(ptr noundef %116, ptr noundef %117, ptr noundef %118, ptr noundef %119, i32 noundef 1)
  %120 = load ptr, ptr %6, align 8, !tbaa !9
  %121 = getelementptr inbounds i8, ptr %120, i64 1
  %122 = load i64, ptr %7, align 8, !tbaa !11
  %123 = sub i64 %122, 1
  %124 = trunc i64 %123 to i32
  %125 = load ptr, ptr %8, align 8, !tbaa !434
  %126 = getelementptr inbounds nuw %struct.checkdiff_t, ptr %125, i32 0, i32 4
  %127 = load i32, ptr %126, align 8, !tbaa !427
  %128 = load ptr, ptr %8, align 8, !tbaa !434
  %129 = getelementptr inbounds nuw %struct.checkdiff_t, ptr %128, i32 0, i32 3
  %130 = load ptr, ptr %129, align 8, !tbaa !426
  %131 = getelementptr inbounds nuw %struct.diff_options, ptr %130, i32 0, i32 55
  %132 = load ptr, ptr %131, align 8, !tbaa !72
  %133 = load ptr, ptr %12, align 8, !tbaa !9
  %134 = load ptr, ptr %11, align 8, !tbaa !9
  %135 = load ptr, ptr %10, align 8, !tbaa !9
  call void @ws_check_emit(ptr noundef %121, i32 noundef %124, i32 noundef %127, ptr noundef %132, ptr noundef %133, ptr noundef %134, ptr noundef %135)
  store i32 0, ptr %16, align 4
  br label %136

136:                                              ; preds = %91, %90
  call void @llvm.lifetime.end.p0(i64 4, ptr %15) #10
  %137 = load i32, ptr %16, align 4
  switch i32 %137, label %152 [
    i32 0, label %138
  ]

138:                                              ; preds = %136
  br label %151

139:                                              ; preds = %3
  %140 = load ptr, ptr %6, align 8, !tbaa !9
  %141 = getelementptr inbounds i8, ptr %140, i64 0
  %142 = load i8, ptr %141, align 1, !tbaa !48
  %143 = sext i8 %142 to i32
  %144 = icmp eq i32 %143, 32
  br i1 %144, label %145, label %150

145:                                              ; preds = %139
  %146 = load ptr, ptr %8, align 8, !tbaa !434
  %147 = getelementptr inbounds nuw %struct.checkdiff_t, ptr %146, i32 0, i32 1
  %148 = load i32, ptr %147, align 8, !tbaa !425
  %149 = add nsw i32 %148, 1
  store i32 %149, ptr %147, align 8, !tbaa !425
  br label %150

150:                                              ; preds = %145, %139
  br label %151

151:                                              ; preds = %150, %138
  store i32 0, ptr %4, align 4
  store i32 1, ptr %16, align 4
  br label %152

152:                                              ; preds = %151, %136
  call void @llvm.lifetime.end.p0(i64 8, ptr %14) #10
  call void @llvm.lifetime.end.p0(i64 8, ptr %13) #10
  call void @llvm.lifetime.end.p0(i64 8, ptr %12) #10
  call void @llvm.lifetime.end.p0(i64 8, ptr %11) #10
  call void @llvm.lifetime.end.p0(i64 8, ptr %10) #10
  call void @llvm.lifetime.end.p0(i64 4, ptr %9) #10
  call void @llvm.lifetime.end.p0(i64 8, ptr %8) #10
  %153 = load i32, ptr %4, align 4
  ret i32 %153
}