; Function Attrs: nounwind uwtable
define internal noundef i32 @checkdiff_consume(ptr noundef captures(none) %0, ptr noundef %1, i64 noundef %2) #0 {
  %4 = getelementptr inbounds nuw i8, ptr %0, i64 12
  %5 = load i32, ptr %4, align 4, !tbaa !291
  %6 = getelementptr inbounds nuw i8, ptr %0, i64 16
  %7 = load ptr, ptr %6, align 8, !tbaa !289
  %8 = getelementptr inbounds nuw i8, ptr %7, i64 244
  %9 = load i32, ptr %8, align 4, !tbaa !154
  %10 = tail call i32 @want_color_fd(i32 noundef 1, i32 noundef %9) #32
  %.not.i = icmp eq i32 %10, 0
  %.0.i = select i1 %.not.i, ptr @.str.41, ptr getelementptr inbounds nuw (i8, ptr @diff_colors, i64 525)
  %11 = load ptr, ptr %6, align 8, !tbaa !289
  %12 = getelementptr inbounds nuw i8, ptr %11, i64 244
  %13 = load i32, ptr %12, align 4, !tbaa !154
  %14 = tail call i32 @want_color_fd(i32 noundef 1, i32 noundef %13) #32
  %.not.i47 = icmp eq i32 %14, 0
  %.0.i48 = select i1 %.not.i47, ptr @.str.41, ptr @diff_colors
  %15 = load ptr, ptr %6, align 8, !tbaa !289
  %16 = getelementptr inbounds nuw i8, ptr %15, i64 244
  %17 = load i32, ptr %16, align 4, !tbaa !154
  %18 = tail call i32 @want_color_fd(i32 noundef 1, i32 noundef %17) #32
  %.not.i49 = icmp eq i32 %18, 0
  %.0.i50 = select i1 %.not.i49, ptr @.str.41, ptr getelementptr inbounds nuw (i8, ptr @diff_colors, i64 375)
  %19 = load ptr, ptr %6, align 8, !tbaa !289
  %20 = getelementptr inbounds nuw i8, ptr %19, i64 528
  %21 = load ptr, ptr %20, align 8, !tbaa !61
  %.not.i51 = icmp eq ptr %21, null
  br i1 %.not.i51, label %diff_line_prefix.exit, label %22

22:                                               ; preds = %3
  %23 = getelementptr inbounds nuw i8, ptr %19, i64 536
  %24 = load ptr, ptr %23, align 8, !tbaa !62
  %25 = tail call ptr %21(ptr noundef nonnull %19, ptr noundef %24) #32
  br label %diff_line_prefix.exit

diff_line_prefix.exit:                            ; preds = %3, %22
  %26 = phi ptr [ %25, %22 ], [ @.str.41, %3 ]
  %27 = load i8, ptr %1, align 1, !tbaa !38
  switch i8 %27, label %.critedge [
    i8 43, label %28
    i8 32, label %80
  ]

28:                                               ; preds = %diff_line_prefix.exit
  %29 = getelementptr inbounds nuw i8, ptr %0, i64 8
  %30 = load i32, ptr %29, align 8, !tbaa !288
  %31 = add nsw i32 %30, 1
  store i32 %31, ptr %29, align 8, !tbaa !288
  %32 = getelementptr inbounds nuw i8, ptr %1, i64 1
  %33 = add i64 %2, -1
  %34 = add nsw i32 %5, 1
  %35 = sext i32 %34 to i64
  %36 = icmp ult i64 %33, %35
  br i1 %36, label %is_conflict_marker.exit.thread, label %37

37:                                               ; preds = %28
  %38 = load i8, ptr %32, align 1, !tbaa !38
  switch i8 %38, label %is_conflict_marker.exit.thread [
    i8 61, label %39
    i8 62, label %39
    i8 60, label %39
    i8 124, label %39
  ]

39:                                               ; preds = %37, %37, %37, %37
  %40 = icmp sgt i32 %5, 1
  br i1 %40, label %.lr.ph.preheader.i, label %is_conflict_marker.exit

.lr.ph.preheader.i:                               ; preds = %39
  %wide.trip.count.i = zext nneg i32 %5 to i64
  br label %.lr.ph.i

41:                                               ; preds = %.lr.ph.i
  %indvars.iv.next.i = add nuw nsw i64 %indvars.iv.i, 1
  %exitcond.not.i = icmp eq i64 %indvars.iv.next.i, %wide.trip.count.i
  br i1 %exitcond.not.i, label %is_conflict_marker.exit, label %.lr.ph.i, !llvm.loop !420

.lr.ph.i:                                         ; preds = %41, %.lr.ph.preheader.i
  %indvars.iv.i = phi i64 [ 1, %.lr.ph.preheader.i ], [ %indvars.iv.next.i, %41 ]
  %42 = getelementptr inbounds nuw i8, ptr %32, i64 %indvars.iv.i
  %43 = load i8, ptr %42, align 1, !tbaa !38
  %.not16.i = icmp eq i8 %43, %38
  br i1 %.not16.i, label %41, label %is_conflict_marker.exit.thread

is_conflict_marker.exit:                          ; preds = %41, %39
  %44 = sext i32 %5 to i64
  %45 = getelementptr inbounds i8, ptr %32, i64 %44
  %46 = load i8, ptr %45, align 1, !tbaa !38
  %47 = zext i8 %46 to i64
  %48 = getelementptr inbounds nuw [256 x i8], ptr @sane_ctype, i64 0, i64 %47
  %49 = load i8, ptr %48, align 1, !tbaa !38
  %50 = and i8 %49, 1
  %.not = icmp eq i8 %50, 0
  br i1 %.not, label %is_conflict_marker.exit.thread, label %51

51:                                               ; preds = %is_conflict_marker.exit
  %52 = getelementptr inbounds nuw i8, ptr %0, i64 28
  %53 = load i32, ptr %52, align 4, !tbaa !295
  %54 = or i32 %53, 1
  store i32 %54, ptr %52, align 4, !tbaa !295
  %55 = load ptr, ptr %6, align 8, !tbaa !289
  %56 = getelementptr inbounds nuw i8, ptr %55, i64 440
  %57 = load ptr, ptr %56, align 8, !tbaa !63
  %58 = load ptr, ptr %0, align 8, !tbaa !285
  %59 = tail call i32 (ptr, ptr, ...) @fprintf(ptr noundef %57, ptr noundef nonnull @.str.375, ptr noundef %26, ptr noundef %58, i32 noundef %31) #32
  br label %is_conflict_marker.exit.thread

is_conflict_marker.exit.thread:                   ; preds = %.lr.ph.i, %37, %28, %51, %is_conflict_marker.exit
  %60 = trunc i64 %33 to i32
  %61 = getelementptr inbounds nuw i8, ptr %0, i64 24
  %62 = load i32, ptr %61, align 8, !tbaa !290
  %63 = tail call i32 @ws_check(ptr noundef nonnull %32, i32 noundef %60, i32 noundef %62) #32
  %.not46.not = icmp eq i32 %63, 0
  br i1 %.not46.not, label %.critedge, label %64

64:                                               ; preds = %is_conflict_marker.exit.thread
  %65 = getelementptr inbounds nuw i8, ptr %0, i64 28
  %66 = load i32, ptr %65, align 4, !tbaa !295
  %67 = or i32 %66, %63
  store i32 %67, ptr %65, align 4, !tbaa !295
  %68 = tail call ptr @whitespace_error_string(i32 noundef %63) #32
  %69 = load ptr, ptr %6, align 8, !tbaa !289
  %70 = getelementptr inbounds nuw i8, ptr %69, i64 440
  %71 = load ptr, ptr %70, align 8, !tbaa !63
  %72 = load ptr, ptr %0, align 8, !tbaa !285
  %73 = load i32, ptr %29, align 8, !tbaa !288
  %74 = tail call i32 (ptr, ptr, ...) @fprintf(ptr noundef %71, ptr noundef nonnull @.str.376, ptr noundef %26, ptr noundef %72, i32 noundef %73, ptr noundef %68) #32
  tail call void @free(ptr noundef %68) #32
  %75 = load ptr, ptr %6, align 8, !tbaa !289
  tail call fastcc void @emit_line_0(ptr noundef %75, ptr noundef nonnull %.0.i50, ptr noundef null, i32 noundef 0, ptr noundef nonnull readonly %.0.i48, i32 noundef 0, ptr noundef nonnull %1, i32 noundef 1)
  %76 = load i32, ptr %61, align 8, !tbaa !290
  %77 = load ptr, ptr %6, align 8, !tbaa !289
  %78 = getelementptr inbounds nuw i8, ptr %77, i64 440
  %79 = load ptr, ptr %78, align 8, !tbaa !63
  tail call void @ws_check_emit(ptr noundef nonnull %32, i32 noundef %60, i32 noundef %76, ptr noundef %79, ptr noundef nonnull %.0.i50, ptr noundef nonnull %.0.i48, ptr noundef nonnull %.0.i) #32
  br label %.critedge

80:                                               ; preds = %diff_line_prefix.exit
  %81 = getelementptr inbounds nuw i8, ptr %0, i64 8
  %82 = load i32, ptr %81, align 8, !tbaa !288
  %83 = add nsw i32 %82, 1
  store i32 %83, ptr %81, align 8, !tbaa !288
  br label %.critedge

.critedge:                                        ; preds = %64, %is_conflict_marker.exit.thread, %80, %diff_line_prefix.exit
  ret i32 0
}